target datalayout = "e-m:e-p270:32:32-p271:32:32-p272:64:64-i64:64-i128:128-f80:128-n8:16:32:64-S128"
target triple = "x86_64-pc-linux-gnu"

%"class.zmq::channel_t" = type { %"class.zmq::socket_base_t.base", ptr }
%"class.zmq::socket_base_t.base" = type <{ %"class.zmq::own_t.base", [4 x i8], %"class.zmq::array_item_t.base", [4 x i8], %"struct.zmq::i_poll_events", %"struct.zmq::i_pipe_events", %"class.zmq::mutex_t", %"class.std::multimap", %"class.zmq::socket_base_t::inprocs_t", i32, i8, i8, [2 x i8], ptr, %"class.zmq::array_t", ptr, ptr, i64, i32, i8, [3 x i8], %"class.zmq::clock_t", ptr, i64, %"class.std::__cxx11::basic_string", i8, [7 x i8], ptr, %"class.zmq::mutex_t", i8 }>
%"class.zmq::own_t.base" = type <{ %"class.zmq::object_t.base", [4 x i8], %"struct.zmq::options_t", i8, [7 x i8], %"class.zmq::atomic_counter_t", i64, ptr, %"class.std::set.24", i32 }>
%"class.zmq::object_t.base" = type <{ ptr, ptr, i32 }>
%"struct.zmq::options_t" = type { i32, i32, i64, i8, [256 x i8], i32, i32, i32, i32, i32, i32, i32, i32, i8, %"struct.zmq::atomic_value_t", i32, i32, i32, i32, i32, i32, i64, i32, i32, i8, i32, i8, i8, i8, i8, i8, %"class.std::__cxx11::basic_string", %"class.std::__cxx11::basic_string", %"class.std::__cxx11::basic_string", i32, i32, i32, i32, %"class.std::vector", %"class.std::set", %"class.std::set", %"class.std::set.6", i32, i32, %"class.std::__cxx11::basic_string", %"class.std::__cxx11::basic_string", %"class.std::__cxx11::basic_string", [32 x i8], [32 x i8], [32 x i8], %"class.std::__cxx11::basic_string", %"class.std::__cxx11::basic_string", i32, i32, i8, i32, i8, i32, i8, i16, i32, i32, i32, %"class.std::__cxx11::basic_string", i8, i8, i8, i32, i32, i8, i32, %"class.std::map", i32, %"class.std::__cxx11::basic_string", %"class.std::__cxx11::basic_string", %"class.std::__cxx11::basic_string", %"class.std::__cxx11::basic_string", i8, %"class.std::vector.17", i8, %"class.std::vector.17", i8, %"class.std::vector.17", i8, i32, i8, i32, i32, i32, i32, i32, i8, i32 }
%"struct.zmq::atomic_value_t" = type { %"struct.std::atomic" }
%"struct.std::atomic" = type { %"struct.std::__atomic_base" }
%"struct.std::__atomic_base" = type { i32 }
%"class.std::vector" = type { %"struct.std::_Vector_base" }
%"struct.std::_Vector_base" = type { %"struct.std::_Vector_base<zmq::tcp_address_mask_t, std::allocator<zmq::tcp_address_mask_t>>::_Vector_impl" }
%"struct.std::_Vector_base<zmq::tcp_address_mask_t, std::allocator<zmq::tcp_address_mask_t>>::_Vector_impl" = type { %"struct.std::_Vector_base<zmq::tcp_address_mask_t, std::allocator<zmq::tcp_address_mask_t>>::_Vector_impl_data" }
%"struct.std::_Vector_base<zmq::tcp_address_mask_t, std::allocator<zmq::tcp_address_mask_t>>::_Vector_impl_data" = type { ptr, ptr, ptr }
%"class.std::set" = type { %"class.std::_Rb_tree" }
%"class.std::_Rb_tree" = type { %"struct.std::_Rb_tree<unsigned int, unsigned int, std::_Identity<unsigned int>, std::less<unsigned int>>::_Rb_tree_impl" }
%"struct.std::_Rb_tree<unsigned int, unsigned int, std::_Identity<unsigned int>, std::less<unsigned int>>::_Rb_tree_impl" = type { [8 x i8], %"struct.std::_Rb_tree_header" }
%"struct.std::_Rb_tree_header" = type { %"struct.std::_Rb_tree_node_base", i64 }
%"struct.std::_Rb_tree_node_base" = type { i32, ptr, ptr, ptr }
%"class.std::set.6" = type { %"class.std::_Rb_tree.7" }
%"class.std::_Rb_tree.7" = type { %"struct.std::_Rb_tree<int, int, std::_Identity<int>, std::less<int>>::_Rb_tree_impl" }
%"struct.std::_Rb_tree<int, int, std::_Identity<int>, std::less<int>>::_Rb_tree_impl" = type { [8 x i8], %"struct.std::_Rb_tree_header" }
%"class.std::map" = type { %"class.std::_Rb_tree.12" }
%"class.std::_Rb_tree.12" = type { %"struct.std::_Rb_tree<std::__cxx11::basic_string<char>, std::pair<const std::__cxx11::basic_string<char>, std::__cxx11::basic_string<char>>, std::_Select1st<std::pair<const std::__cxx11::basic_string<char>, std::__cxx11::basic_string<char>>>, std::less<std::__cxx11::basic_string<char>>>::_Rb_tree_impl" }
%"struct.std::_Rb_tree<std::__cxx11::basic_string<char>, std::pair<const std::__cxx11::basic_string<char>, std::__cxx11::basic_string<char>>, std::_Select1st<std::pair<const std::__cxx11::basic_string<char>, std::__cxx11::basic_string<char>>>, std::less<std::__cxx11::basic_string<char>>>::_Rb_tree_impl" = type { [8 x i8], %"struct.std::_Rb_tree_header" }
%"class.std::vector.17" = type { %"struct.std::_Vector_base.18" }
%"struct.std::_Vector_base.18" = type { %"struct.std::_Vector_base<unsigned char, std::allocator<unsigned char>>::_Vector_impl" }
%"struct.std::_Vector_base<unsigned char, std::allocator<unsigned char>>::_Vector_impl" = type { %"struct.std::_Vector_base<unsigned char, std::allocator<unsigned char>>::_Vector_impl_data" }
%"struct.std::_Vector_base<unsigned char, std::allocator<unsigned char>>::_Vector_impl_data" = type { ptr, ptr, ptr }
%"class.zmq::atomic_counter_t" = type { %"struct.std::atomic.22", [4 x i8] }
%"struct.std::atomic.22" = type { %"struct.std::__atomic_base.23" }
%"struct.std::__atomic_base.23" = type { i32 }
%"class.std::set.24" = type { %"class.std::_Rb_tree.25" }
%"class.std::_Rb_tree.25" = type { %"struct.std::_Rb_tree<zmq::own_t *, zmq::own_t *, std::_Identity<zmq::own_t *>, std::less<zmq::own_t *>>::_Rb_tree_impl" }
%"struct.std::_Rb_tree<zmq::own_t *, zmq::own_t *, std::_Identity<zmq::own_t *>, std::less<zmq::own_t *>>::_Rb_tree_impl" = type { [8 x i8], %"struct.std::_Rb_tree_header" }
%"class.zmq::array_item_t.base" = type <{ ptr, i32 }>
%"struct.zmq::i_poll_events" = type { ptr }
%"struct.zmq::i_pipe_events" = type { ptr }
%"class.std::multimap" = type { %"class.std::_Rb_tree.30" }
%"class.std::_Rb_tree.30" = type { %"struct.std::_Rb_tree<std::__cxx11::basic_string<char>, std::pair<const std::__cxx11::basic_string<char>, std::pair<zmq::own_t *, zmq::pipe_t *>>, std::_Select1st<std::pair<const std::__cxx11::basic_string<char>, std::pair<zmq::own_t *, zmq::pipe_t *>>>, std::less<std::__cxx11::basic_string<char>>>::_Rb_tree_impl" }
%"struct.std::_Rb_tree<std::__cxx11::basic_string<char>, std::pair<const std::__cxx11::basic_string<char>, std::pair<zmq::own_t *, zmq::pipe_t *>>, std::_Select1st<std::pair<const std::__cxx11::basic_string<char>, std::pair<zmq::own_t *, zmq::pipe_t *>>>, std::less<std::__cxx11::basic_string<char>>>::_Rb_tree_impl" = type { [8 x i8], %"struct.std::_Rb_tree_header" }
%"class.zmq::socket_base_t::inprocs_t" = type { %"class.std::multimap.34" }
%"class.std::multimap.34" = type { %"class.std::_Rb_tree.35" }
%"class.std::_Rb_tree.35" = type { %"struct.std::_Rb_tree<std::__cxx11::basic_string<char>, std::pair<const std::__cxx11::basic_string<char>, zmq::pipe_t *>, std::_Select1st<std::pair<const std::__cxx11::basic_string<char>, zmq::pipe_t *>>, std::less<std::__cxx11::basic_string<char>>>::_Rb_tree_impl" }
%"struct.std::_Rb_tree<std::__cxx11::basic_string<char>, std::pair<const std::__cxx11::basic_string<char>, zmq::pipe_t *>, std::_Select1st<std::pair<const std::__cxx11::basic_string<char>, zmq::pipe_t *>>, std::less<std::__cxx11::basic_string<char>>>::_Rb_tree_impl" = type { [8 x i8], %"struct.std::_Rb_tree_header" }
%"class.zmq::array_t" = type { %"class.std::vector.39" }
%"class.std::vector.39" = type { %"struct.std::_Vector_base.40" }
%"struct.std::_Vector_base.40" = type { %"struct.std::_Vector_base<zmq::pipe_t *, std::allocator<zmq::pipe_t *>>::_Vector_impl" }
%"struct.std::_Vector_base<zmq::pipe_t *, std::allocator<zmq::pipe_t *>>::_Vector_impl" = type { %"struct.std::_Vector_base<zmq::pipe_t *, std::allocator<zmq::pipe_t *>>::_Vector_impl_data" }
%"struct.std::_Vector_base<zmq::pipe_t *, std::allocator<zmq::pipe_t *>>::_Vector_impl_data" = type { ptr, ptr, ptr }
%"class.zmq::clock_t" = type { i64, i64 }
%"class.std::__cxx11::basic_string" = type { %"struct.std::__cxx11::basic_string<char>::_Alloc_hider", i64, %union.anon }
%"struct.std::__cxx11::basic_string<char>::_Alloc_hider" = type { ptr }
%union.anon = type { i64, [8 x i8] }
%"class.zmq::mutex_t" = type <{ %union.pthread_mutex_t, %union.pthread_mutexattr_t, [4 x i8] }>
%union.pthread_mutex_t = type { %struct.__pthread_mutex_s }
%struct.__pthread_mutex_s = type { i32, i32, i32, i32, i32, i16, i16, %struct.__pthread_internal_list }
%struct.__pthread_internal_list = type { ptr, ptr }
%union.pthread_mutexattr_t = type { i32 }

@stderr = external global ptr, align 8
@.str.2 = private unnamed_addr constant [107 x i8] c"generated/home/dtcxzyw/WorkSpace/Projects/compilers/llvm-opt-benchmark/bench/libzmq/libzmq/src/channel.cpp\00", align 1
@.str.4 = private unnamed_addr constant [12 x i8] c"%s (%s:%d)\0A\00", align 1

; Function Attrs: mustprogress uwtable
define noundef i32 @_ZN3zmq9channel_t5xrecvEPNS_5msg_tE(ptr noundef nonnull align 8 dereferenceable(1840) %0, ptr noundef %1) unnamed_addr #0 align 2 {
  %3 = alloca i32, align 4
  %4 = alloca ptr, align 8
  %5 = alloca ptr, align 8
  %6 = alloca i32, align 4
  %7 = alloca ptr, align 8
  %8 = alloca ptr, align 8
  %9 = alloca i32, align 4
  %10 = alloca i8, align 1
  %11 = alloca ptr, align 8
  store ptr %0, ptr %4, align 8, !tbaa !3
  store ptr %1, ptr %5, align 8, !tbaa !94
  %12 = load ptr, ptr %4, align 8
  call void @llvm.lifetime.start.p0(i64 4, ptr %6) #11
  %13 = load ptr, ptr %5, align 8, !tbaa !94
  %14 = call noundef i32 @_ZN3zmq5msg_t5closeEv(ptr noundef nonnull align 8 dereferenceable(64) %13)
  store i32 %14, ptr %6, align 4, !tbaa !10
  br label %15

15:                                               ; preds = %2
  %16 = load i32, ptr %6, align 4, !tbaa !10
  %17 = icmp eq i32 %16, 0
  %18 = xor i1 %17, true
  %19 = zext i1 %18 to i64
  %20 = call i64 @llvm.expect.i64(i64 %19, i64 0)
  %21 = icmp ne i64 %20, 0
  br i1 %21, label %22, label %32

22:                                               ; preds = %15
  call void @llvm.lifetime.start.p0(i64 8, ptr %7) #11
  %23 = call ptr @__errno_location() #14
  %24 = load i32, ptr %23, align 4, !tbaa !10
  %25 = call ptr @strerror(i32 noundef %24) #11
  store ptr %25, ptr %7, align 8, !tbaa !96
  %26 = load ptr, ptr @stderr, align 8, !tbaa !90
  %27 = load ptr, ptr %7, align 8, !tbaa !96
  %28 = call i32 (ptr, ptr, ...) @fprintf(ptr noundef %26, ptr noundef @.str.4, ptr noundef %27, ptr noundef @.str.2, i32 noundef 82) #11
  %29 = load ptr, ptr @stderr, align 8, !tbaa !90
  %30 = call i32 @fflush(ptr noundef %29)
  %31 = load ptr, ptr %7, align 8, !tbaa !96
  call void @_ZN3zmq9zmq_abortEPKc(ptr noundef %31)
  call void @llvm.lifetime.end.p0(i64 8, ptr %7) #11
  br label %32

32:                                               ; preds = %22, %15
  br label %33

33:                                               ; preds = %32
  br label %34

34:                                               ; preds = %33
  %35 = getelementptr inbounds nuw %"class.zmq::channel_t", ptr %12, i32 0, i32 1
  %36 = load ptr, ptr %35, align 8, !tbaa !14
  %37 = icmp ne ptr %36, null
  br i1 %37, label %62, label %38

38:                                               ; preds = %34
  %39 = load ptr, ptr %5, align 8, !tbaa !94
  %40 = call noundef i32 @_ZN3zmq5msg_t4initEv(ptr noundef nonnull align 8 dereferenceable(64) %39)
  store i32 %40, ptr %6, align 4, !tbaa !10
  br label %41

41:                                               ; preds = %38
  %42 = load i32, ptr %6, align 4, !tbaa !10
  %43 = icmp eq i32 %42, 0
  %44 = xor i1 %43, true
  %45 = zext i1 %44 to i64
  %46 = call i64 @llvm.expect.i64(i64 %45, i64 0)
  %47 = icmp ne i64 %46, 0
  br i1 %47, label %48, label %58

48:                                               ; preds = %41
  call void @llvm.lifetime.start.p0(i64 8, ptr %8) #11
  %49 = call ptr @__errno_location() #14
  %50 = load i32, ptr %49, align 4, !tbaa !10
  %51 = call ptr @strerror(i32 noundef %50) #11
  store ptr %51, ptr %8, align 8, !tbaa !96
  %52 = load ptr, ptr @stderr, align 8, !tbaa !90
  %53 = load ptr, ptr %8, align 8, !tbaa !96
  %54 = call i32 (ptr, ptr, ...) @fprintf(ptr noundef %52, ptr noundef @.str.4, ptr noundef %53, ptr noundef @.str.2, i32 noundef 87) #11
  %55 = load ptr, ptr @stderr, align 8, !tbaa !90
  %56 = call i32 @fflush(ptr noundef %55)
  %57 = load ptr, ptr %8, align 8, !tbaa !96
  call void @_ZN3zmq9zmq_abortEPKc(ptr noundef %57)
  call void @llvm.lifetime.end.p0(i64 8, ptr %8) #11
  br label %58

58:                                               ; preds = %48, %41
  br label %59

59:                                               ; preds = %58
  br label %60

60:                                               ; preds = %59
  %61 = call ptr @__errno_location() #14
  store i32 11, ptr %61, align 4, !tbaa !10
  store i32 -1, ptr %3, align 4
  store i32 1, ptr %9, align 4
  br label %141

62:                                               ; preds = %34
  call void @llvm.lifetime.start.p0(i64 1, ptr %10) #11
  %63 = getelementptr inbounds nuw %"class.zmq::channel_t", ptr %12, i32 0, i32 1
  %64 = load ptr, ptr %63, align 8, !tbaa !14
  %65 = load ptr, ptr %5, align 8, !tbaa !94
  %66 = call noundef zeroext i1 @_ZN3zmq6pipe_t4readEPNS_5msg_tE(ptr noundef nonnull align 8 dereferenceable(328) %64, ptr noundef %65)
  %67 = zext i1 %66 to i8
  store i8 %67, ptr %10, align 1, !tbaa !93
  br label %68

68:                                               ; preds = %111, %62
  %69 = load i8, ptr %10, align 1, !tbaa !93, !range !97, !noundef !98
  %70 = trunc i8 %69 to i1
  br i1 %70, label %71, label %77

71:                                               ; preds = %68
  %72 = load ptr, ptr %5, align 8, !tbaa !94
  %73 = call noundef zeroext i8 @_ZNK3zmq5msg_t5flagsEv(ptr noundef nonnull align 8 dereferenceable(64) %72)
  %74 = zext i8 %73 to i32
  %75 = and i32 %74, 1
  %76 = icmp ne i32 %75, 0
  br label %77

77:                                               ; preds = %71, %68
  %78 = phi i1 [ false, %68 ], [ %76, %71 ]
  br i1 %78, label %79, label %112

79:                                               ; preds = %77
  %80 = getelementptr inbounds nuw %"class.zmq::channel_t", ptr %12, i32 0, i32 1
  %81 = load ptr, ptr %80, align 8, !tbaa !14
  %82 = load ptr, ptr %5, align 8, !tbaa !94
  %83 = call noundef zeroext i1 @_ZN3zmq6pipe_t4readEPNS_5msg_tE(ptr noundef nonnull align 8 dereferenceable(328) %81, ptr noundef %82)
  %84 = zext i1 %83 to i8
  store i8 %84, ptr %10, align 1, !tbaa !93
  br label %85

85:                                               ; preds = %96, %79
  %86 = load i8, ptr %10, align 1, !tbaa !93, !range !97, !noundef !98
  %87 = trunc i8 %86 to i1
  br i1 %87, label %88, label %94

88:                                               ; preds = %85
  %89 = load ptr, ptr %5, align 8, !tbaa !94
  %90 = call noundef zeroext i8 @_ZNK3zmq5msg_t5flagsEv(ptr noundef nonnull align 8 dereferenceable(64) %89)
  %91 = zext i8 %90 to i32
  %92 = and i32 %91, 1
  %93 = icmp ne i32 %92, 0
  br label %94

94:                                               ; preds = %88, %85
  %95 = phi i1 [ false, %85 ], [ %93, %88 ]
  br i1 %95, label %96, label %102

96:                                               ; preds = %94
  %97 = getelementptr inbounds nuw %"class.zmq::channel_t", ptr %12, i32 0, i32 1
  %98 = load ptr, ptr %97, align 8, !tbaa !14
  %99 = load ptr, ptr %5, align 8, !tbaa !94
  %100 = call noundef zeroext i1 @_ZN3zmq6pipe_t4readEPNS_5msg_tE(ptr noundef nonnull align 8 dereferenceable(328) %98, ptr noundef %99)
  %101 = zext i1 %100 to i8
  store i8 %101, ptr %10, align 1, !tbaa !93
  br label %85, !llvm.loop !99

102:                                              ; preds = %94
  %103 = load i8, ptr %10, align 1, !tbaa !93, !range !97, !noundef !98
  %104 = trunc i8 %103 to i1
  br i1 %104, label %105, label %111

105:                                              ; preds = %102
  %106 = getelementptr inbounds nuw %"class.zmq::channel_t", ptr %12, i32 0, i32 1
  %107 = load ptr, ptr %106, align 8, !tbaa !14
  %108 = load ptr, ptr %5, align 8, !tbaa !94
  %109 = call noundef zeroext i1 @_ZN3zmq6pipe_t4readEPNS_5msg_tE(ptr noundef nonnull align 8 dereferenceable(328) %107, ptr noundef %108)
  %110 = zext i1 %109 to i8
  store i8 %110, ptr %10, align 1, !tbaa !93
  br label %111

111:                                              ; preds = %105, %102
  br label %68, !llvm.loop !101

112:                                              ; preds = %77
  %113 = load i8, ptr %10, align 1, !tbaa !93, !range !97, !noundef !98
  %114 = trunc i8 %113 to i1
  br i1 %114, label %139, label %115

115:                                              ; preds = %112
  %116 = load ptr, ptr %5, align 8, !tbaa !94
  %117 = call noundef i32 @_ZN3zmq5msg_t4initEv(ptr noundef nonnull align 8 dereferenceable(64) %116)
  store i32 %117, ptr %6, align 4, !tbaa !10
  br label %118

118:                                              ; preds = %115
  %119 = load i32, ptr %6, align 4, !tbaa !10
  %120 = icmp eq i32 %119, 0
  %121 = xor i1 %120, true
  %122 = zext i1 %121 to i64
  %123 = call i64 @llvm.expect.i64(i64 %122, i64 0)
  %124 = icmp ne i64 %123, 0
  br i1 %124, label %125, label %135

125:                                              ; preds = %118
  call void @llvm.lifetime.start.p0(i64 8, ptr %11) #11
  %126 = call ptr @__errno_location() #14
  %127 = load i32, ptr %126, align 4, !tbaa !10
  %128 = call ptr @strerror(i32 noundef %127) #11
  store ptr %128, ptr %11, align 8, !tbaa !96
  %129 = load ptr, ptr @stderr, align 8, !tbaa !90
  %130 = load ptr, ptr %11, align 8, !tbaa !96
  %131 = call i32 (ptr, ptr, ...) @fprintf(ptr noundef %129, ptr noundef @.str.4, ptr noundef %130, ptr noundef @.str.2, i32 noundef 109) #11
  %132 = load ptr, ptr @stderr, align 8, !tbaa !90
  %133 = call i32 @fflush(ptr noundef %132)
  %134 = load ptr, ptr %11, align 8, !tbaa !96
  call void @_ZN3zmq9zmq_abortEPKc(ptr noundef %134)
  call void @llvm.lifetime.end.p0(i64 8, ptr %11) #11
  br label %135

135:                                              ; preds = %125, %118
  br label %136

136:                                              ; preds = %135
  br label %137

137:                                              ; preds = %136
  %138 = call ptr @__errno_location() #14
  store i32 11, ptr %138, align 4, !tbaa !10
  store i32 -1, ptr %3, align 4
  store i32 1, ptr %9, align 4
  br label %140

139:                                              ; preds = %112
  store i32 0, ptr %3, align 4
  store i32 1, ptr %9, align 4
  br label %140

140:                                              ; preds = %139, %137
  call void @llvm.lifetime.end.p0(i64 1, ptr %10) #11
  br label %141

141:                                              ; preds = %140, %60
  call void @llvm.lifetime.end.p0(i64 4, ptr %6) #11
  %142 = load i32, ptr %3, align 4
  ret i32 %142
}