; Function Attrs: mustprogress uwtable
define noundef range(i32 -1, 1) i32 @_ZN3zmq9channel_t5xrecvEPNS_5msg_tE(ptr noundef nonnull readonly align 8 captures(none) dereferenceable(1840) %0, ptr noundef nonnull %1) unnamed_addr #0 align 2 {
  %3 = tail call noundef i32 @_ZN3zmq5msg_t5closeEv(ptr noundef nonnull align 8 dereferenceable(64) %1)
  %.not = icmp eq i32 %3, 0
  br i1 %.not, label %12, label %4, !prof !86

4:                                                ; preds = %2
  %5 = tail call ptr @__errno_location() #17
  %6 = load i32, ptr %5, align 4, !tbaa !90
  %7 = tail call ptr @strerror(i32 noundef %6) #14
  %8 = load ptr, ptr @stderr, align 8, !tbaa !87
  %9 = tail call i32 (ptr, ptr, ...) @fprintf(ptr noundef %8, ptr noundef nonnull @.str.4, ptr noundef %7, ptr noundef nonnull @.str.2, i32 noundef 82) #13
  %10 = load ptr, ptr @stderr, align 8, !tbaa !87
  %11 = tail call i32 @fflush(ptr noundef %10)
  tail call void @_ZN3zmq9zmq_abortEPKc(ptr noundef %7)
  br label %12

12:                                               ; preds = %4, %2
  %13 = getelementptr inbounds nuw i8, ptr %0, i64 1832
  %14 = load ptr, ptr %13, align 8, !tbaa !6
  %.not28 = icmp eq ptr %14, null
  br i1 %.not28, label %15, label %17

15:                                               ; preds = %12
  %16 = tail call noundef i32 @_ZN3zmq5msg_t4initEv(ptr noundef nonnull align 8 dereferenceable(64) %1)
  %.not29 = icmp eq i32 %16, 0
  %.pre = tail call ptr @__errno_location() #17
  br i1 %.not29, label %.critedge.sink.split, label %.critedge.sink.split.sink.split, !prof !86

17:                                               ; preds = %12
  %18 = tail call noundef zeroext i1 @_ZN3zmq6pipe_t4readEPNS_5msg_tE(ptr noundef nonnull align 8 dereferenceable(328) %14, ptr noundef nonnull %1)
  br i1 %18, label %.lr.ph35, label %.critedge34

.lr.ph35:                                         ; preds = %17, %.critedge2
  %19 = tail call noundef zeroext i8 @_ZNK3zmq5msg_t5flagsEv(ptr noundef nonnull align 8 dereferenceable(64) %1)
  %20 = and i8 %19, 1
  %.not30 = icmp eq i8 %20, 0
  br i1 %.not30, label %.critedge, label %21

21:                                               ; preds = %.lr.ph35
  %22 = load ptr, ptr %13, align 8, !tbaa !6
  %23 = tail call noundef zeroext i1 @_ZN3zmq6pipe_t4readEPNS_5msg_tE(ptr noundef nonnull align 8 dereferenceable(328) %22, ptr noundef nonnull %1)
  br i1 %23, label %.lr.ph, label %.critedge34

.lr.ph:                                           ; preds = %21, %28
  %24 = tail call noundef zeroext i8 @_ZNK3zmq5msg_t5flagsEv(ptr noundef nonnull align 8 dereferenceable(64) %1)
  %25 = and i8 %24, 1
  %.not32 = icmp eq i8 %25, 0
  %26 = load ptr, ptr %13, align 8, !tbaa !6
  %27 = tail call noundef zeroext i1 @_ZN3zmq6pipe_t4readEPNS_5msg_tE(ptr noundef nonnull align 8 dereferenceable(328) %26, ptr noundef nonnull %1)
  br i1 %.not32, label %.critedge2, label %28

28:                                               ; preds = %.lr.ph
  br i1 %27, label %.lr.ph, label %.critedge34, !llvm.loop !91

.critedge2:                                       ; preds = %.lr.ph
  br i1 %27, label %.lr.ph35, label %.critedge34, !llvm.loop !93

.critedge34:                                      ; preds = %21, %.critedge2, %28, %17
  %29 = tail call noundef i32 @_ZN3zmq5msg_t4initEv(ptr noundef nonnull align 8 dereferenceable(64) %1)
  %.not31 = icmp eq i32 %29, 0
  %.pre37 = tail call ptr @__errno_location() #17
  br i1 %.not31, label %.critedge.sink.split, label %.critedge.sink.split.sink.split, !prof !86

.critedge.sink.split.sink.split:                  ; preds = %.critedge34, %15
  %.pre37.sink = phi ptr [ %.pre, %15 ], [ %.pre37, %.critedge34 ]
  %.sink43 = phi i32 [ 87, %15 ], [ 109, %.critedge34 ]
  %30 = load i32, ptr %.pre37.sink, align 4, !tbaa !90
  %31 = tail call ptr @strerror(i32 noundef %30) #14
  %32 = load ptr, ptr @stderr, align 8, !tbaa !87
  %33 = tail call i32 (ptr, ptr, ...) @fprintf(ptr noundef %32, ptr noundef nonnull @.str.4, ptr noundef %31, ptr noundef nonnull @.str.2, i32 noundef %.sink43) #13
  %34 = load ptr, ptr @stderr, align 8, !tbaa !87
  %35 = tail call i32 @fflush(ptr noundef %34)
  tail call void @_ZN3zmq9zmq_abortEPKc(ptr noundef %31)
  br label %.critedge.sink.split

.critedge.sink.split:                             ; preds = %.critedge.sink.split.sink.split, %.critedge34, %15
  %.pre-phi38.sink = phi ptr [ %.pre, %15 ], [ %.pre37, %.critedge34 ], [ %.pre37.sink, %.critedge.sink.split.sink.split ]
  store i32 11, ptr %.pre-phi38.sink, align 4, !tbaa !90
  br label %.critedge

.critedge:                                        ; preds = %.lr.ph35, %.critedge.sink.split
  %.0 = phi i32 [ -1, %.critedge.sink.split ], [ 0, %.lr.ph35 ]
  ret i32 %.0
}